target datalayout = "e-m:e-p270:32:32-p271:32:32-p272:64:64-i64:64-i128:128-f80:128-n8:16:32:64-S128"
target triple = "x86_64-pc-linux-gnu"

@uv__recvmmsg_avail = internal global i32 0, align 4
@uv__sendmmsg_avail = internal global i32 0, align 4

; Function Attrs: nounwind uwtable
define internal void @uv__udp_mmsg_init() #0 {
  %1 = alloca i32, align 4
  %2 = alloca i32, align 4
  %3 = call i32 @uv__socket(i32 noundef 2, i32 noundef 2, i32 noundef 0)
  store i32 %3, ptr %2, align 4
  %4 = load i32, ptr %2, align 4
  %5 = icmp slt i32 %4, 0
  br i1 %5, label %6, label %7

6:                                                ; preds = %0
  br label %31

7:                                                ; preds = %0
  %8 = load i32, ptr %2, align 4
  %9 = call i32 @uv__sendmmsg(i32 noundef %8, ptr noundef null, i32 noundef 0)
  store i32 %9, ptr %1, align 4
  %10 = load i32, ptr %1, align 4
  %11 = icmp eq i32 %10, 0
  br i1 %11, label %16, label %12

12:                                               ; preds = %7
  %13 = call ptr @__errno_location() #8
  %14 = load i32, ptr %13, align 4
  %15 = icmp ne i32 %14, 38
  br i1 %15, label %16, label %17

16:                                               ; preds = %12, %7
  store i32 1, ptr @uv__sendmmsg_avail, align 4
  store i32 1, ptr @uv__recvmmsg_avail, align 4
  br label %28

17:                                               ; preds = %12
  %18 = load i32, ptr %2, align 4
  %19 = call i32 @uv__recvmmsg(i32 noundef %18, ptr noundef null, i32 noundef 0)
  store i32 %19, ptr %1, align 4
  %20 = load i32, ptr %1, align 4
  %21 = icmp eq i32 %20, 0
  br i1 %21, label %26, label %22

22:                                               ; preds = %17
  %23 = call ptr @__errno_location() #8
  %24 = load i32, ptr %23, align 4
  %25 = icmp ne i32 %24, 38
  br i1 %25, label %26, label %27

26:                                               ; preds = %22, %17
  store i32 1, ptr @uv__recvmmsg_avail, align 4
  br label %27

27:                                               ; preds = %26, %22
  br label %28

28:                                               ; preds = %27, %16
  %29 = load i32, ptr %2, align 4
  %30 = call i32 @uv__close(i32 noundef %29)
  br label %31

31:                                               ; preds = %28, %6
  ret void
}