; Function Attrs: nounwind uwtable
define internal void @uv__udp_mmsg_init() #0 {
  %1 = tail call i32 @uv__socket(i32 noundef 2, i32 noundef 2, i32 noundef 0) #9
  %2 = icmp slt i32 %1, 0
  br i1 %2, label %17, label %3

3:                                                ; preds = %0
  %4 = tail call i32 @uv__sendmmsg(i32 noundef %1, ptr noundef null, i32 noundef 0) #9
  %5 = icmp eq i32 %4, 0
  br i1 %5, label %9, label %6

6:                                                ; preds = %3
  %7 = tail call ptr @__errno_location() #10
  %8 = load i32, ptr %7, align 4
  %.not = icmp eq i32 %8, 38
  br i1 %.not, label %10, label %9

9:                                                ; preds = %6, %3
  store i1 true, ptr @uv__sendmmsg_avail, align 4
  br label %.sink.split

10:                                               ; preds = %6
  %11 = tail call i32 @uv__recvmmsg(i32 noundef %1, ptr noundef null, i32 noundef 0) #9
  %12 = icmp eq i32 %11, 0
  br i1 %12, label %.sink.split, label %13

13:                                               ; preds = %10
  %14 = load i32, ptr %7, align 4
  %.not6 = icmp eq i32 %14, 38
  br i1 %.not6, label %15, label %.sink.split

.sink.split:                                      ; preds = %10, %13, %9
  store i1 true, ptr @uv__recvmmsg_avail, align 4
  br label %15

15:                                               ; preds = %.sink.split, %13
  %16 = tail call i32 @uv__close(i32 noundef %1) #9
  br label %17

17:                                               ; preds = %0, %15
  ret void
}